; Function Attrs: nounwind uwtable
define void @Abc_Tt6MinTest3(ptr noundef readnone captures(none) %0) local_unnamed_addr #0 {
  %2 = tail call noalias dereferenceable_or_null(16) ptr @malloc(i64 noundef 16) #22
  %3 = getelementptr inbounds nuw i8, ptr %2, i64 4
  store i32 0, ptr %3, align 4, !tbaa !61
  store i32 100, ptr %2, align 8, !tbaa !63
  %4 = tail call noalias dereferenceable_or_null(800) ptr @malloc(i64 noundef 800) #22
  %5 = getelementptr inbounds nuw i8, ptr %2, i64 8
  store ptr %4, ptr %5, align 8, !tbaa !64
  %6 = tail call fastcc i64 @Abc_Tt6Min_rec(i64 noundef 5853272140833948943, i64 noundef -5853272140833948944, i32 noundef 6, ptr noundef nonnull %2)
  %.val = load i32, ptr %3, align 4, !tbaa !61
  %7 = tail call i32 (ptr, ...) @printf(ptr noundef nonnull dereferenceable(1) @.str.17, i32 noundef %.val)
  %8 = icmp eq i64 %6, 5853272140833948943
  %str.1.str = select i1 %8, ptr @str.3, ptr @str.2
  %puts = tail call i32 @puts(ptr nonnull dereferenceable(1) %str.1.str)
  %9 = load ptr, ptr %5, align 8, !tbaa !64
  %.not.i = icmp eq ptr %9, null
  br i1 %.not.i, label %Vec_WrdFree.exit, label %10

10:                                               ; preds = %1
  tail call void @free(ptr noundef nonnull %9) #24
  br label %Vec_WrdFree.exit

Vec_WrdFree.exit:                                 ; preds = %1, %10
  tail call void @free(ptr noundef nonnull %2) #24
  ret void
}